target datalayout = "e-m:e-p270:32:32-p271:32:32-p272:64:64-i64:64-i128:128-f80:128-n8:16:32:64-S128"
target triple = "x86_64-pc-linux-gnu"

%struct.algo_time_t = type { i32, i32 }

; Function Attrs: nounwind uwtable
define internal i32 @ERR_isError(i64 noundef %0) #0 {
  %2 = alloca i64, align 8
  store i64 %0, ptr %2, align 8
  %3 = load i64, ptr %2, align 8
  %4 = icmp ugt i64 %3, -120
  %5 = zext i1 %4 to i32
  ret i32 %5
}

; Function Attrs: nounwind uwtable
define internal i64 @HUF_decompress4X1_DCtx_wksp(ptr noundef %0, ptr noundef %1, i64 noundef %2, ptr noundef %3, i64 noundef %4, ptr noundef %5, i64 noundef %6, i32 noundef %7) #0 {
  %9 = alloca i64, align 8
  %10 = alloca ptr, align 8
  %11 = alloca ptr, align 8
  %12 = alloca i64, align 8
  %13 = alloca ptr, align 8
  %14 = alloca i64, align 8
  %15 = alloca ptr, align 8
  %16 = alloca i64, align 8
  %17 = alloca i32, align 4
  %18 = alloca ptr, align 8
  %19 = alloca i64, align 8
  store ptr %0, ptr %10, align 8
  store ptr %1, ptr %11, align 8
  store i64 %2, ptr %12, align 8
  store ptr %3, ptr %13, align 8
  store i64 %4, ptr %14, align 8
  store ptr %5, ptr %15, align 8
  store i64 %6, ptr %16, align 8
  store i32 %7, ptr %17, align 4
  %20 = load ptr, ptr %13, align 8
  store ptr %20, ptr %18, align 8
  %21 = load ptr, ptr %10, align 8
  %22 = load ptr, ptr %13, align 8
  %23 = load i64, ptr %14, align 8
  %24 = load ptr, ptr %15, align 8
  %25 = load i64, ptr %16, align 8
  %26 = load i32, ptr %17, align 4
  %27 = call i64 @HUF_readDTableX1_wksp(ptr noundef %21, ptr noundef %22, i64 noundef %23, ptr noundef %24, i64 noundef %25, i32 noundef %26)
  store i64 %27, ptr %19, align 8
  %28 = load i64, ptr %19, align 8
  %29 = call i32 @ERR_isError(i64 noundef %28)
  %30 = icmp ne i32 %29, 0
  br i1 %30, label %31, label %33

31:                                               ; preds = %8
  %32 = load i64, ptr %19, align 8
  store i64 %32, ptr %9, align 8
  br label %52

33:                                               ; preds = %8
  %34 = load i64, ptr %19, align 8
  %35 = load i64, ptr %14, align 8
  %36 = icmp uge i64 %34, %35
  br i1 %36, label %37, label %38

37:                                               ; preds = %33
  store i64 -72, ptr %9, align 8
  br label %52

38:                                               ; preds = %33
  %39 = load i64, ptr %19, align 8
  %40 = load ptr, ptr %18, align 8
  %41 = getelementptr inbounds i8, ptr %40, i64 %39
  store ptr %41, ptr %18, align 8
  %42 = load i64, ptr %19, align 8
  %43 = load i64, ptr %14, align 8
  %44 = sub i64 %43, %42
  store i64 %44, ptr %14, align 8
  %45 = load ptr, ptr %11, align 8
  %46 = load i64, ptr %12, align 8
  %47 = load ptr, ptr %18, align 8
  %48 = load i64, ptr %14, align 8
  %49 = load ptr, ptr %10, align 8
  %50 = load i32, ptr %17, align 4
  %51 = call i64 @HUF_decompress4X1_usingDTable_internal(ptr noundef %45, i64 noundef %46, ptr noundef %47, i64 noundef %48, ptr noundef %49, i32 noundef %50)
  store i64 %51, ptr %9, align 8
  br label %52

52:                                               ; preds = %38, %37, %31
  %53 = load i64, ptr %9, align 8
  ret i64 %53
}

; Function Attrs: nounwind uwtable
define internal i64 @HUF_decompress4X2_DCtx_wksp(ptr noundef %0, ptr noundef %1, i64 noundef %2, ptr noundef %3, i64 noundef %4, ptr noundef %5, i64 noundef %6, i32 noundef %7) #0 {
  %9 = alloca i64, align 8
  %10 = alloca ptr, align 8
  %11 = alloca ptr, align 8
  %12 = alloca i64, align 8
  %13 = alloca ptr, align 8
  %14 = alloca i64, align 8
  %15 = alloca ptr, align 8
  %16 = alloca i64, align 8
  %17 = alloca i32, align 4
  %18 = alloca ptr, align 8
  %19 = alloca i64, align 8
  store ptr %0, ptr %10, align 8
  store ptr %1, ptr %11, align 8
  store i64 %2, ptr %12, align 8
  store ptr %3, ptr %13, align 8
  store i64 %4, ptr %14, align 8
  store ptr %5, ptr %15, align 8
  store i64 %6, ptr %16, align 8
  store i32 %7, ptr %17, align 4
  %20 = load ptr, ptr %13, align 8
  store ptr %20, ptr %18, align 8
  %21 = load ptr, ptr %10, align 8
  %22 = load ptr, ptr %13, align 8
  %23 = load i64, ptr %14, align 8
  %24 = load ptr, ptr %15, align 8
  %25 = load i64, ptr %16, align 8
  %26 = load i32, ptr %17, align 4
  %27 = call i64 @HUF_readDTableX2_wksp(ptr noundef %21, ptr noundef %22, i64 noundef %23, ptr noundef %24, i64 noundef %25, i32 noundef %26)
  store i64 %27, ptr %19, align 8
  %28 = load i64, ptr %19, align 8
  %29 = call i32 @ERR_isError(i64 noundef %28)
  %30 = icmp ne i32 %29, 0
  br i1 %30, label %31, label %33

31:                                               ; preds = %8
  %32 = load i64, ptr %19, align 8
  store i64 %32, ptr %9, align 8
  br label %52

33:                                               ; preds = %8
  %34 = load i64, ptr %19, align 8
  %35 = load i64, ptr %14, align 8
  %36 = icmp uge i64 %34, %35
  br i1 %36, label %37, label %38

37:                                               ; preds = %33
  store i64 -72, ptr %9, align 8
  br label %52

38:                                               ; preds = %33
  %39 = load i64, ptr %19, align 8
  %40 = load ptr, ptr %18, align 8
  %41 = getelementptr inbounds i8, ptr %40, i64 %39
  store ptr %41, ptr %18, align 8
  %42 = load i64, ptr %19, align 8
  %43 = load i64, ptr %14, align 8
  %44 = sub i64 %43, %42
  store i64 %44, ptr %14, align 8
  %45 = load ptr, ptr %11, align 8
  %46 = load i64, ptr %12, align 8
  %47 = load ptr, ptr %18, align 8
  %48 = load i64, ptr %14, align 8
  %49 = load ptr, ptr %10, align 8
  %50 = load i32, ptr %17, align 4
  %51 = call i64 @HUF_decompress4X2_usingDTable_internal(ptr noundef %45, i64 noundef %46, ptr noundef %47, i64 noundef %48, ptr noundef %49, i32 noundef %50)
  store i64 %51, ptr %9, align 8
  br label %52

52:                                               ; preds = %38, %37, %31
  %53 = load i64, ptr %9, align 8
  ret i64 %53
}

; Function Attrs: nounwind uwtable
define dso_local i32 @HUF_selectDecoder(i64 noundef %0, i64 noundef %1) #0 {
  %3 = alloca i64, align 8
  %4 = alloca i64, align 8
  %5 = alloca i32, align 4
  %6 = alloca i32, align 4
  %7 = alloca i32, align 4
  %8 = alloca i32, align 4
  store i64 %0, ptr %3, align 8
  store i64 %1, ptr %4, align 8
  %9 = load i64, ptr %4, align 8
  %10 = load i64, ptr %3, align 8
  %11 = icmp uge i64 %9, %10
  br i1 %11, label %12, label %13

12:                                               ; preds = %2
  br label %19

13:                                               ; preds = %2
  %14 = load i64, ptr %4, align 8
  %15 = mul i64 %14, 16
  %16 = load i64, ptr %3, align 8
  %17 = udiv i64 %15, %16
  %18 = trunc i64 %17 to i32
  br label %19

19:                                               ; preds = %13, %12
  %20 = phi i32 [ 15, %12 ], [ %18, %13 ]
  store i32 %20, ptr %5, align 4
  %21 = load i64, ptr %3, align 8
  %22 = lshr i64 %21, 8
  %23 = trunc i64 %22 to i32
  store i32 %23, ptr %6, align 4
  %24 = load i32, ptr %5, align 4
  %25 = zext i32 %24 to i64
  %26 = getelementptr inbounds [16 x [2 x %struct.algo_time_t]], ptr @algoTime, i64 0, i64 %25
  %27 = getelementptr inbounds [2 x %struct.algo_time_t], ptr %26, i64 0, i64 0
  %28 = getelementptr inbounds %struct.algo_time_t, ptr %27, i32 0, i32 0
  %29 = load i32, ptr %28, align 16
  %30 = load i32, ptr %5, align 4
  %31 = zext i32 %30 to i64
  %32 = getelementptr inbounds [16 x [2 x %struct.algo_time_t]], ptr @algoTime, i64 0, i64 %31
  %33 = getelementptr inbounds [2 x %struct.algo_time_t], ptr %32, i64 0, i64 0
  %34 = getelementptr inbounds %struct.algo_time_t, ptr %33, i32 0, i32 1
  %35 = load i32, ptr %34, align 4
  %36 = load i32, ptr %6, align 4
  %37 = mul i32 %35, %36
  %38 = add i32 %29, %37
  store i32 %38, ptr %7, align 4
  %39 = load i32, ptr %5, align 4
  %40 = zext i32 %39 to i64
  %41 = getelementptr inbounds [16 x [2 x %struct.algo_time_t]], ptr @algoTime, i64 0, i64 %40
  %42 = getelementptr inbounds [2 x %struct.algo_time_t], ptr %41, i64 0, i64 1
  %43 = getelementptr inbounds %struct.algo_time_t, ptr %42, i32 0, i32 0
  %44 = load i32, ptr %43, align 8
  %45 = load i32, ptr %5, align 4
  %46 = zext i32 %45 to i64
  %47 = getelementptr inbounds [16 x [2 x %struct.algo_time_t]], ptr @algoTime, i64 0, i64 %46
  %48 = getelementptr inbounds [2 x %struct.algo_time_t], ptr %47, i64 0, i64 1
  %49 = getelementptr inbounds %struct.algo_time_t, ptr %48, i32 0, i32 1
  %50 = load i32, ptr %49, align 4
  %51 = load i32, ptr %6, align 4
  %52 = mul i32 %50, %51
  %53 = add i32 %44, %52
  store i32 %53, ptr %8, align 4
  %54 = load i32, ptr %8, align 4
  %55 = lshr i32 %54, 5
  %56 = load i32, ptr %8, align 4
  %57 = add i32 %56, %55
  store i32 %57, ptr %8, align 4
  %58 = load i32, ptr %8, align 4
  %59 = load i32, ptr %7, align 4
  %60 = icmp ult i32 %58, %59
  %61 = zext i1 %60 to i32
  ret i32 %61
}

; Function Attrs: nounwind uwtable
define dso_local i64 @HUF_decompress4X_hufOnly_wksp(ptr noundef %0, ptr noundef %1, i64 noundef %2, ptr noundef %3, i64 noundef %4, ptr noundef %5, i64 noundef %6, i32 noundef %7) #0 {
  %9 = alloca i64, align 8
  %10 = alloca ptr, align 8
  %11 = alloca ptr, align 8
  %12 = alloca i64, align 8
  %13 = alloca ptr, align 8
  %14 = alloca i64, align 8
  %15 = alloca ptr, align 8
  %16 = alloca i64, align 8
  %17 = alloca i32, align 4
  %18 = alloca i32, align 4
  store ptr %0, ptr %10, align 8
  store ptr %1, ptr %11, align 8
  store i64 %2, ptr %12, align 8
  store ptr %3, ptr %13, align 8
  store i64 %4, ptr %14, align 8
  store ptr %5, ptr %15, align 8
  store i64 %6, ptr %16, align 8
  store i32 %7, ptr %17, align 4
  %19 = load i64, ptr %12, align 8
  %20 = icmp eq i64 %19, 0
  br i1 %20, label %21, label %22

21:                                               ; preds = %8
  store i64 -70, ptr %9, align 8
  br label %54

22:                                               ; preds = %8
  %23 = load i64, ptr %14, align 8
  %24 = icmp eq i64 %23, 0
  br i1 %24, label %25, label %26

25:                                               ; preds = %22
  store i64 -20, ptr %9, align 8
  br label %54

26:                                               ; preds = %22
  %27 = load i64, ptr %12, align 8
  %28 = load i64, ptr %14, align 8
  %29 = call i32 @HUF_selectDecoder(i64 noundef %27, i64 noundef %28)
  store i32 %29, ptr %18, align 4
  %30 = load i32, ptr %18, align 4
  %31 = icmp ne i32 %30, 0
  br i1 %31, label %32, label %42

32:                                               ; preds = %26
  %33 = load ptr, ptr %10, align 8
  %34 = load ptr, ptr %11, align 8
  %35 = load i64, ptr %12, align 8
  %36 = load ptr, ptr %13, align 8
  %37 = load i64, ptr %14, align 8
  %38 = load ptr, ptr %15, align 8
  %39 = load i64, ptr %16, align 8
  %40 = load i32, ptr %17, align 4
  %41 = call i64 @HUF_decompress4X2_DCtx_wksp(ptr noundef %33, ptr noundef %34, i64 noundef %35, ptr noundef %36, i64 noundef %37, ptr noundef %38, i64 noundef %39, i32 noundef %40)
  br label %52

42:                                               ; preds = %26
  %43 = load ptr, ptr %10, align 8
  %44 = load ptr, ptr %11, align 8
  %45 = load i64, ptr %12, align 8
  %46 = load ptr, ptr %13, align 8
  %47 = load i64, ptr %14, align 8
  %48 = load ptr, ptr %15, align 8
  %49 = load i64, ptr %16, align 8
  %50 = load i32, ptr %17, align 4
  %51 = call i64 @HUF_decompress4X1_DCtx_wksp(ptr noundef %43, ptr noundef %44, i64 noundef %45, ptr noundef %46, i64 noundef %47, ptr noundef %48, i64 noundef %49, i32 noundef %50)
  br label %52

52:                                               ; preds = %42, %32
  %53 = phi i64 [ %41, %32 ], [ %51, %42 ]
  store i64 %53, ptr %9, align 8
  br label %54

54:                                               ; preds = %52, %25, %21
  %55 = load i64, ptr %9, align 8
  ret i64 %55
}